target datalayout = "e-m:e-p270:32:32-p271:32:32-p272:64:64-i64:64-i128:128-f80:128-n8:16:32:64-S128"
target triple = "x86_64-pc-linux-gnu"

%union.anon.2 = type { i64 }
%struct.AVOption = type { ptr, ptr, i32, i32, %union.anon.2, double, double, i32, ptr }

@.str.22 = private unnamed_addr constant [2 x i8] c"=\00", align 1
@.str.23 = private unnamed_addr constant [2 x i8] c":\00", align 1
@.str.24 = private unnamed_addr constant [26 x i8] c"No option name near '%s'\0A\00", align 1
@.str.25 = private unnamed_addr constant [26 x i8] c"Unable to parse '%s': %s\0A\00", align 1
@.str.26 = private unnamed_addr constant [28 x i8] c"Setting '%s' to value '%s'\0A\00", align 1

; Function Attrs: inlinehint nounwind uwtable
define internal ptr @av_make_error_string(ptr noundef %0, i64 noundef %1, i32 noundef %2) #4 {
  %4 = alloca ptr, align 8
  %5 = alloca i64, align 8
  %6 = alloca i32, align 4
  store ptr %0, ptr %4, align 8, !tbaa !124
  store i64 %1, ptr %5, align 8, !tbaa !77
  store i32 %2, ptr %6, align 4, !tbaa !19
  %7 = load i32, ptr %6, align 4, !tbaa !19
  %8 = load ptr, ptr %4, align 8, !tbaa !124
  %9 = load i64, ptr %5, align 8, !tbaa !77
  %10 = call i32 @av_strerror(i32 noundef %7, ptr noundef %8, i64 noundef %9)
  %11 = load ptr, ptr %4, align 8, !tbaa !124
  ret ptr %11
}

; Function Attrs: nounwind uwtable
define i32 @ff_filter_opt_parse(ptr noundef %0, ptr noundef %1, ptr noundef %2, ptr noundef %3) #0 {
  %5 = alloca i32, align 4
  %6 = alloca ptr, align 8
  %7 = alloca ptr, align 8
  %8 = alloca ptr, align 8
  %9 = alloca ptr, align 8
  %10 = alloca ptr, align 8
  %11 = alloca i32, align 4
  %12 = alloca i32, align 4
  %13 = alloca i32, align 4
  %14 = alloca ptr, align 8
  %15 = alloca ptr, align 8
  %16 = alloca ptr, align 8
  %17 = alloca ptr, align 8
  %18 = alloca i32, align 4
  %19 = alloca [64 x i8], align 1
  store ptr %0, ptr %6, align 8, !tbaa !72
  store ptr %1, ptr %7, align 8, !tbaa !141
  store ptr %2, ptr %8, align 8, !tbaa !159
  store ptr %3, ptr %9, align 8, !tbaa !124
  call void @llvm.lifetime.start.p0(i64 8, ptr %10) #11
  store ptr null, ptr %10, align 8, !tbaa !161
  call void @llvm.lifetime.start.p0(i64 4, ptr %11) #11
  call void @llvm.lifetime.start.p0(i64 4, ptr %12) #11
  store i32 -1, ptr %12, align 4, !tbaa !19
  %20 = load ptr, ptr %9, align 8, !tbaa !124
  %21 = icmp ne ptr %20, null
  br i1 %21, label %23, label %22

22:                                               ; preds = %4
  store i32 0, ptr %5, align 4
  store i32 1, ptr %13, align 4
  br label %104

23:                                               ; preds = %4
  br label %24

24:                                               ; preds = %102, %100, %23
  %25 = load ptr, ptr %9, align 8, !tbaa !124
  %26 = load i8, ptr %25, align 1, !tbaa !163
  %27 = icmp ne i8 %26, 0
  br i1 %27, label %28, label %103

28:                                               ; preds = %24
  call void @llvm.lifetime.start.p0(i64 8, ptr %14) #11
  call void @llvm.lifetime.start.p0(i64 8, ptr %15) #11
  call void @llvm.lifetime.start.p0(i64 8, ptr %16) #11
  call void @llvm.lifetime.start.p0(i64 8, ptr %17) #11
  store ptr null, ptr %17, align 8, !tbaa !124
  call void @llvm.lifetime.start.p0(i64 4, ptr %18) #11
  store i32 0, ptr %18, align 4, !tbaa !19
  %29 = load ptr, ptr %7, align 8, !tbaa !141
  %30 = icmp ne ptr %29, null
  br i1 %30, label %31, label %54

31:                                               ; preds = %28
  %32 = load ptr, ptr %10, align 8, !tbaa !161
  %33 = call ptr @av_opt_next(ptr noundef %7, ptr noundef %32)
  store ptr %33, ptr %10, align 8, !tbaa !161
  %34 = icmp ne ptr %33, null
  br i1 %34, label %35, label %54

35:                                               ; preds = %31
  %36 = load ptr, ptr %10, align 8, !tbaa !161
  %37 = getelementptr inbounds nuw %struct.AVOption, ptr %36, i32 0, i32 3
  %38 = load i32, ptr %37, align 4, !tbaa !164
  %39 = icmp eq i32 %38, 11
  br i1 %39, label %46, label %40

40:                                               ; preds = %35
  %41 = load ptr, ptr %10, align 8, !tbaa !161
  %42 = getelementptr inbounds nuw %struct.AVOption, ptr %41, i32 0, i32 2
  %43 = load i32, ptr %42, align 8, !tbaa !166
  %44 = load i32, ptr %12, align 4, !tbaa !19
  %45 = icmp eq i32 %43, %44
  br i1 %45, label %46, label %47

46:                                               ; preds = %40, %35
  store i32 2, ptr %13, align 4
  br label %100, !llvm.loop !167

47:                                               ; preds = %40
  %48 = load ptr, ptr %10, align 8, !tbaa !161
  %49 = getelementptr inbounds nuw %struct.AVOption, ptr %48, i32 0, i32 2
  %50 = load i32, ptr %49, align 8, !tbaa !166
  store i32 %50, ptr %12, align 4, !tbaa !19
  %51 = load ptr, ptr %10, align 8, !tbaa !161
  %52 = getelementptr inbounds nuw %struct.AVOption, ptr %51, i32 0, i32 0
  %53 = load ptr, ptr %52, align 8, !tbaa !168
  store ptr %53, ptr %17, align 8, !tbaa !124
  br label %54

54:                                               ; preds = %47, %31, %28
  %55 = load ptr, ptr %17, align 8, !tbaa !124
  %56 = icmp ne ptr %55, null
  %57 = select i1 %56, i32 1, i32 0
  %58 = call i32 @av_opt_get_key_value(ptr noundef %9, ptr noundef @.str.22, ptr noundef @.str.23, i32 noundef %57, ptr noundef %14, ptr noundef %15)
  store i32 %58, ptr %11, align 4, !tbaa !19
  %59 = load i32, ptr %11, align 4, !tbaa !19
  %60 = icmp slt i32 %59, 0
  br i1 %60, label %61, label %75

61:                                               ; preds = %54
  %62 = load i32, ptr %11, align 4, !tbaa !19
  %63 = icmp eq i32 %62, -22
  br i1 %63, label %64, label %67

64:                                               ; preds = %61
  %65 = load ptr, ptr %6, align 8, !tbaa !72
  %66 = load ptr, ptr %9, align 8, !tbaa !124
  call void (ptr, i32, ptr, ...) @av_log(ptr noundef %65, i32 noundef 16, ptr noundef @.str.24, ptr noundef %66)
  br label %73

67:                                               ; preds = %61
  %68 = load ptr, ptr %6, align 8, !tbaa !72
  %69 = load ptr, ptr %9, align 8, !tbaa !124
  call void @llvm.memset.p0.i64(ptr align 1 %19, i8 0, i64 64, i1 false)
  %70 = getelementptr inbounds [64 x i8], ptr %19, i64 0, i64 0
  %71 = load i32, ptr %11, align 4, !tbaa !19
  %72 = call ptr @av_make_error_string(ptr noundef %70, i64 noundef 64, i32 noundef %71)
  call void (ptr, i32, ptr, ...) @av_log(ptr noundef %68, i32 noundef 16, ptr noundef @.str.25, ptr noundef %69, ptr noundef %72)
  br label %73

73:                                               ; preds = %67, %64
  %74 = load i32, ptr %11, align 4, !tbaa !19
  store i32 %74, ptr %5, align 4
  store i32 1, ptr %13, align 4
  br label %100

75:                                               ; preds = %54
  %76 = load ptr, ptr %9, align 8, !tbaa !124
  %77 = load i8, ptr %76, align 1, !tbaa !163
  %78 = icmp ne i8 %77, 0
  br i1 %78, label %79, label %82

79:                                               ; preds = %75
  %80 = load ptr, ptr %9, align 8, !tbaa !124
  %81 = getelementptr inbounds nuw i8, ptr %80, i32 1
  store ptr %81, ptr %9, align 8, !tbaa !124
  br label %82

82:                                               ; preds = %79, %75
  %83 = load ptr, ptr %14, align 8, !tbaa !124
  %84 = icmp ne ptr %83, null
  br i1 %84, label %85, label %87

85:                                               ; preds = %82
  %86 = load ptr, ptr %14, align 8, !tbaa !124
  store ptr %86, ptr %16, align 8, !tbaa !124
  store i32 4, ptr %18, align 4, !tbaa !19
  store ptr null, ptr %7, align 8, !tbaa !141
  br label %89

87:                                               ; preds = %82
  %88 = load ptr, ptr %17, align 8, !tbaa !124
  store ptr %88, ptr %16, align 8, !tbaa !124
  br label %89

89:                                               ; preds = %87, %85
  %90 = load ptr, ptr %6, align 8, !tbaa !72
  %91 = load ptr, ptr %16, align 8, !tbaa !124
  %92 = load ptr, ptr %15, align 8, !tbaa !124
  call void (ptr, i32, ptr, ...) @av_log(ptr noundef %90, i32 noundef 48, ptr noundef @.str.26, ptr noundef %91, ptr noundef %92)
  %93 = load ptr, ptr %8, align 8, !tbaa !159
  %94 = load ptr, ptr %16, align 8, !tbaa !124
  %95 = load ptr, ptr %15, align 8, !tbaa !124
  %96 = load i32, ptr %18, align 4, !tbaa !19
  %97 = or i32 %96, 8
  %98 = or i32 %97, 64
  %99 = call i32 @av_dict_set(ptr noundef %93, ptr noundef %94, ptr noundef %95, i32 noundef %98)
  store i32 0, ptr %13, align 4
  br label %100

100:                                              ; preds = %89, %73, %46
  call void @llvm.lifetime.end.p0(i64 4, ptr %18) #11
  call void @llvm.lifetime.end.p0(i64 8, ptr %17) #11
  call void @llvm.lifetime.end.p0(i64 8, ptr %16) #11
  call void @llvm.lifetime.end.p0(i64 8, ptr %15) #11
  call void @llvm.lifetime.end.p0(i64 8, ptr %14) #11
  %101 = load i32, ptr %13, align 4
  switch i32 %101, label %104 [
    i32 0, label %102
    i32 2, label %24
  ]

102:                                              ; preds = %100
  br label %24, !llvm.loop !167

103:                                              ; preds = %24
  store i32 0, ptr %5, align 4
  store i32 1, ptr %13, align 4
  br label %104

104:                                              ; preds = %103, %100, %22
  call void @llvm.lifetime.end.p0(i64 4, ptr %12) #11
  call void @llvm.lifetime.end.p0(i64 4, ptr %11) #11
  call void @llvm.lifetime.end.p0(i64 8, ptr %10) #11
  %105 = load i32, ptr %5, align 4
  ret i32 %105
}