; Function Attrs: nounwind uwtable
define range(i32 -2147483648, 1) i32 @ff_filter_opt_parse(ptr noundef %0, ptr noundef %1, ptr noundef %2, ptr noundef %3) local_unnamed_addr #0 {
  %5 = alloca ptr, align 8
  %6 = alloca ptr, align 8
  %7 = alloca ptr, align 8
  %8 = alloca ptr, align 8
  %9 = alloca [64 x i8], align 1
  store ptr %1, ptr %5, align 8, !tbaa !114
  store ptr %3, ptr %6, align 8, !tbaa !133
  %.not = icmp eq ptr %3, null
  br i1 %.not, label %.loopexit, label %.preheader

.preheader:                                       ; preds = %4
  %10 = load i8, ptr %3, align 1, !tbaa !109
  %.not3545 = icmp eq i8 %10, 0
  br i1 %.not3545, label %.loopexit, label %.lr.ph

.lr.ph:                                           ; preds = %.preheader, %46
  %.02347 = phi i32 [ %.2, %46 ], [ -1, %.preheader ]
  %.02746 = phi ptr [ %.229, %46 ], [ null, %.preheader ]
  call void @llvm.lifetime.start.p0(i64 8, ptr nonnull %7) #15
  call void @llvm.lifetime.start.p0(i64 8, ptr nonnull %8) #15
  %11 = load ptr, ptr %5, align 8, !tbaa !114
  %.not36 = icmp eq ptr %11, null
  br i1 %.not36, label %24, label %12

12:                                               ; preds = %.lr.ph
  %13 = call ptr @av_opt_next(ptr noundef nonnull %5, ptr noundef %.02746) #15
  %.not37 = icmp eq ptr %13, null
  br i1 %.not37, label %24, label %14

14:                                               ; preds = %12
  %15 = getelementptr inbounds nuw i8, ptr %13, i64 20
  %16 = load i32, ptr %15, align 4, !tbaa !134
  %17 = icmp eq i32 %16, 11
  br i1 %17, label %46, label %18, !llvm.loop !136

18:                                               ; preds = %14
  %19 = getelementptr inbounds nuw i8, ptr %13, i64 16
  %20 = load i32, ptr %19, align 8, !tbaa !137
  %21 = icmp eq i32 %20, %.02347
  br i1 %21, label %46, label %22, !llvm.loop !136

22:                                               ; preds = %18
  %23 = load ptr, ptr %13, align 8, !tbaa !138
  br label %24

24:                                               ; preds = %22, %12, %.lr.ph
  %.128 = phi ptr [ %13, %22 ], [ null, %12 ], [ %.02746, %.lr.ph ]
  %.1 = phi i32 [ %20, %22 ], [ %.02347, %12 ], [ %.02347, %.lr.ph ]
  %.020 = phi ptr [ %23, %22 ], [ null, %12 ], [ null, %.lr.ph ]
  %.not38 = icmp ne ptr %.020, null
  %25 = zext i1 %.not38 to i32
  %26 = call i32 @av_opt_get_key_value(ptr noundef nonnull %6, ptr noundef nonnull @.str.22, ptr noundef nonnull @.str.23, i32 noundef %25, ptr noundef nonnull %7, ptr noundef nonnull %8) #15
  %27 = icmp slt i32 %26, 0
  br i1 %27, label %28, label %34

28:                                               ; preds = %24
  %29 = icmp eq i32 %26, -22
  %30 = load ptr, ptr %6, align 8, !tbaa !133
  br i1 %29, label %31, label %32

31:                                               ; preds = %28
  call void (ptr, i32, ptr, ...) @av_log(ptr noundef %0, i32 noundef 16, ptr noundef nonnull @.str.24, ptr noundef %30) #15
  br label %.thread

32:                                               ; preds = %28
  call void @llvm.memset.p0.i64(ptr noundef nonnull align 1 dereferenceable(64) %9, i8 0, i64 64, i1 false)
  %33 = call i32 @av_strerror(i32 noundef range(i32 -2147483648, 0) %26, ptr noundef nonnull %9, i64 noundef 64) #15
  call void (ptr, i32, ptr, ...) @av_log(ptr noundef %0, i32 noundef 16, ptr noundef nonnull @.str.25, ptr noundef %30, ptr noundef nonnull %9) #15
  br label %.thread

34:                                               ; preds = %24
  %35 = load ptr, ptr %6, align 8, !tbaa !133
  %36 = load i8, ptr %35, align 1, !tbaa !109
  %.not39 = icmp eq i8 %36, 0
  br i1 %.not39, label %39, label %37

37:                                               ; preds = %34
  %38 = getelementptr inbounds nuw i8, ptr %35, i64 1
  store ptr %38, ptr %6, align 8, !tbaa !133
  br label %39

39:                                               ; preds = %37, %34
  %40 = load ptr, ptr %7, align 8, !tbaa !133
  %.not40 = icmp eq ptr %40, null
  br i1 %.not40, label %42, label %41

41:                                               ; preds = %39
  store ptr null, ptr %5, align 8, !tbaa !114
  br label %42

42:                                               ; preds = %39, %41
  %.021 = phi ptr [ %40, %41 ], [ %.020, %39 ]
  %.0 = phi i32 [ 76, %41 ], [ 72, %39 ]
  %43 = load ptr, ptr %8, align 8, !tbaa !133
  call void (ptr, i32, ptr, ...) @av_log(ptr noundef %0, i32 noundef 48, ptr noundef nonnull @.str.26, ptr noundef %.021, ptr noundef %43) #15
  %44 = load ptr, ptr %8, align 8, !tbaa !133
  %45 = call i32 @av_dict_set(ptr noundef %2, ptr noundef %.021, ptr noundef %44, i32 noundef %.0) #15
  br label %46

.thread:                                          ; preds = %32, %31
  call void @llvm.lifetime.end.p0(i64 8, ptr nonnull %8) #15
  call void @llvm.lifetime.end.p0(i64 8, ptr nonnull %7) #15
  br label %.loopexit

46:                                               ; preds = %14, %18, %42
  %.229 = phi ptr [ %.128, %42 ], [ %13, %18 ], [ %13, %14 ]
  %.2 = phi i32 [ %.1, %42 ], [ %.02347, %18 ], [ %.02347, %14 ]
  call void @llvm.lifetime.end.p0(i64 8, ptr nonnull %8) #15
  call void @llvm.lifetime.end.p0(i64 8, ptr nonnull %7) #15
  %47 = load ptr, ptr %6, align 8, !tbaa !133
  %48 = load i8, ptr %47, align 1, !tbaa !109
  %.not35 = icmp eq i8 %48, 0
  br i1 %.not35, label %.loopexit, label %.lr.ph

.loopexit:                                        ; preds = %46, %.preheader, %.thread, %4
  %.024 = phi i32 [ 0, %4 ], [ %26, %.thread ], [ 0, %.preheader ], [ 0, %46 ]
  ret i32 %.024
}